target datalayout = "e-m:e-p270:32:32-p271:32:32-p272:64:64-i64:64-i128:128-f80:128-n8:16:32:64-S128"
target triple = "x86_64-pc-linux-gnu"

%"class.cv::Point_" = type { i32, i32 }
%"class.cv::Size_" = type { i32, i32 }
%"class.cv::Rect_" = type { i32, i32, i32, i32 }

; Function Attrs: inlinehint mustprogress nounwind uwtable
define linkonce_odr hidden void @_ZN2cv5Rect_IiEC2Eiiii(ptr noundef nonnull align 4 dereferenceable(16) %0, i32 noundef %1, i32 noundef %2, i32 noundef %3, i32 noundef %4) unnamed_addr #7 comdat align 2 {
  %6 = alloca ptr, align 8
  %7 = alloca i32, align 4
  %8 = alloca i32, align 4
  %9 = alloca i32, align 4
  %10 = alloca i32, align 4
  store ptr %0, ptr %6, align 8, !tbaa !38
  store i32 %1, ptr %7, align 4, !tbaa !8
  store i32 %2, ptr %8, align 4, !tbaa !8
  store i32 %3, ptr %9, align 4, !tbaa !8
  store i32 %4, ptr %10, align 4, !tbaa !8
  %11 = load ptr, ptr %6, align 8
  %12 = getelementptr inbounds nuw %"class.cv::Rect_", ptr %11, i32 0, i32 0
  %13 = load i32, ptr %7, align 4, !tbaa !8
  store i32 %13, ptr %12, align 4, !tbaa !47
  %14 = getelementptr inbounds nuw %"class.cv::Rect_", ptr %11, i32 0, i32 1
  %15 = load i32, ptr %8, align 4, !tbaa !8
  store i32 %15, ptr %14, align 4, !tbaa !49
  %16 = getelementptr inbounds nuw %"class.cv::Rect_", ptr %11, i32 0, i32 2
  %17 = load i32, ptr %9, align 4, !tbaa !8
  store i32 %17, ptr %16, align 4, !tbaa !50
  %18 = getelementptr inbounds nuw %"class.cv::Rect_", ptr %11, i32 0, i32 3
  %19 = load i32, ptr %10, align 4, !tbaa !8
  store i32 %19, ptr %18, align 4, !tbaa !51
  ret void
}

; Function Attrs: inlinehint mustprogress nounwind uwtable
define linkonce_odr noundef nonnull align 4 dereferenceable(4) ptr @_ZSt3minIiERKT_S2_S2_(ptr noundef nonnull align 4 dereferenceable(4) %0, ptr noundef nonnull align 4 dereferenceable(4) %1) #7 comdat {
  %3 = alloca ptr, align 8
  %4 = alloca ptr, align 8
  %5 = alloca ptr, align 8
  store ptr %0, ptr %4, align 8, !tbaa !16
  store ptr %1, ptr %5, align 8, !tbaa !16
  %6 = load ptr, ptr %5, align 8, !tbaa !16
  %7 = load i32, ptr %6, align 4, !tbaa !8
  %8 = load ptr, ptr %4, align 8, !tbaa !16
  %9 = load i32, ptr %8, align 4, !tbaa !8
  %10 = icmp slt i32 %7, %9
  br i1 %10, label %11, label %13

11:                                               ; preds = %2
  %12 = load ptr, ptr %5, align 8, !tbaa !16
  store ptr %12, ptr %3, align 8
  br label %15

13:                                               ; preds = %2
  %14 = load ptr, ptr %4, align 8, !tbaa !16
  store ptr %14, ptr %3, align 8
  br label %15

15:                                               ; preds = %13, %11
  %16 = load ptr, ptr %3, align 8
  ret ptr %16
}

; Function Attrs: inlinehint mustprogress nounwind uwtable
define linkonce_odr noundef nonnull align 4 dereferenceable(4) ptr @_ZSt3maxIiERKT_S2_S2_(ptr noundef nonnull align 4 dereferenceable(4) %0, ptr noundef nonnull align 4 dereferenceable(4) %1) #7 comdat {
  %3 = alloca ptr, align 8
  %4 = alloca ptr, align 8
  %5 = alloca ptr, align 8
  store ptr %0, ptr %4, align 8, !tbaa !16
  store ptr %1, ptr %5, align 8, !tbaa !16
  %6 = load ptr, ptr %4, align 8, !tbaa !16
  %7 = load i32, ptr %6, align 4, !tbaa !8
  %8 = load ptr, ptr %5, align 8, !tbaa !16
  %9 = load i32, ptr %8, align 4, !tbaa !8
  %10 = icmp slt i32 %7, %9
  br i1 %10, label %11, label %13

11:                                               ; preds = %2
  %12 = load ptr, ptr %5, align 8, !tbaa !16
  store ptr %12, ptr %3, align 8
  br label %15

13:                                               ; preds = %2
  %14 = load ptr, ptr %4, align 8, !tbaa !16
  store ptr %14, ptr %3, align 8
  br label %15

15:                                               ; preds = %13, %11
  %16 = load ptr, ptr %3, align 8
  ret ptr %16
}

; Function Attrs: mustprogress uwtable
define noundef zeroext i1 @_ZN2cv6detail10overlapRoiENS_6Point_IiEES2_NS_5Size_IiEES4_RNS_5Rect_IiEE(i64 %0, i64 %1, i64 %2, i64 %3, ptr noundef nonnull align 4 dereferenceable(16) %4) #4 {
  %6 = alloca i1, align 1
  %7 = alloca %"class.cv::Point_", align 4
  %8 = alloca %"class.cv::Point_", align 4
  %9 = alloca %"class.cv::Size_", align 4
  %10 = alloca %"class.cv::Size_", align 4
  %11 = alloca ptr, align 8
  %12 = alloca i32, align 4
  %13 = alloca i32, align 4
  %14 = alloca i32, align 4
  %15 = alloca i32, align 4
  %16 = alloca i32, align 4
  %17 = alloca i32, align 4
  %18 = alloca i32, align 4
  %19 = alloca i32, align 4
  %20 = alloca %"class.cv::Rect_", align 4
  %21 = alloca i32, align 4
  store i64 %0, ptr %7, align 4
  store i64 %1, ptr %8, align 4
  store i64 %2, ptr %9, align 4
  store i64 %3, ptr %10, align 4
  store ptr %4, ptr %11, align 8, !tbaa !38
  call void @llvm.lifetime.start.p0(i64 4, ptr %12) #3
  %22 = getelementptr inbounds nuw %"class.cv::Point_", ptr %7, i32 0, i32 0
  %23 = getelementptr inbounds nuw %"class.cv::Point_", ptr %8, i32 0, i32 0
  %24 = call noundef nonnull align 4 dereferenceable(4) ptr @_ZSt3maxIiERKT_S2_S2_(ptr noundef nonnull align 4 dereferenceable(4) %22, ptr noundef nonnull align 4 dereferenceable(4) %23)
  %25 = load i32, ptr %24, align 4, !tbaa !8
  store i32 %25, ptr %12, align 4, !tbaa !8
  call void @llvm.lifetime.start.p0(i64 4, ptr %13) #3
  %26 = getelementptr inbounds nuw %"class.cv::Point_", ptr %7, i32 0, i32 1
  %27 = getelementptr inbounds nuw %"class.cv::Point_", ptr %8, i32 0, i32 1
  %28 = call noundef nonnull align 4 dereferenceable(4) ptr @_ZSt3maxIiERKT_S2_S2_(ptr noundef nonnull align 4 dereferenceable(4) %26, ptr noundef nonnull align 4 dereferenceable(4) %27)
  %29 = load i32, ptr %28, align 4, !tbaa !8
  store i32 %29, ptr %13, align 4, !tbaa !8
  call void @llvm.lifetime.start.p0(i64 4, ptr %14) #3
  call void @llvm.lifetime.start.p0(i64 4, ptr %15) #3
  %30 = getelementptr inbounds nuw %"class.cv::Point_", ptr %7, i32 0, i32 0
  %31 = load i32, ptr %30, align 4, !tbaa !40
  %32 = getelementptr inbounds nuw %"class.cv::Size_", ptr %9, i32 0, i32 0
  %33 = load i32, ptr %32, align 4, !tbaa !42
  %34 = add nsw i32 %31, %33
  store i32 %34, ptr %15, align 4, !tbaa !8
  call void @llvm.lifetime.start.p0(i64 4, ptr %16) #3
  %35 = getelementptr inbounds nuw %"class.cv::Point_", ptr %8, i32 0, i32 0
  %36 = load i32, ptr %35, align 4, !tbaa !40
  %37 = getelementptr inbounds nuw %"class.cv::Size_", ptr %10, i32 0, i32 0
  %38 = load i32, ptr %37, align 4, !tbaa !42
  %39 = add nsw i32 %36, %38
  store i32 %39, ptr %16, align 4, !tbaa !8
  %40 = call noundef nonnull align 4 dereferenceable(4) ptr @_ZSt3minIiERKT_S2_S2_(ptr noundef nonnull align 4 dereferenceable(4) %15, ptr noundef nonnull align 4 dereferenceable(4) %16)
  %41 = load i32, ptr %40, align 4, !tbaa !8
  call void @llvm.lifetime.end.p0(i64 4, ptr %16) #3
  call void @llvm.lifetime.end.p0(i64 4, ptr %15) #3
  store i32 %41, ptr %14, align 4, !tbaa !8
  call void @llvm.lifetime.start.p0(i64 4, ptr %17) #3
  call void @llvm.lifetime.start.p0(i64 4, ptr %18) #3
  %42 = getelementptr inbounds nuw %"class.cv::Point_", ptr %7, i32 0, i32 1
  %43 = load i32, ptr %42, align 4, !tbaa !44
  %44 = getelementptr inbounds nuw %"class.cv::Size_", ptr %9, i32 0, i32 1
  %45 = load i32, ptr %44, align 4, !tbaa !45
  %46 = add nsw i32 %43, %45
  store i32 %46, ptr %18, align 4, !tbaa !8
  call void @llvm.lifetime.start.p0(i64 4, ptr %19) #3
  %47 = getelementptr inbounds nuw %"class.cv::Point_", ptr %8, i32 0, i32 1
  %48 = load i32, ptr %47, align 4, !tbaa !44
  %49 = getelementptr inbounds nuw %"class.cv::Size_", ptr %10, i32 0, i32 1
  %50 = load i32, ptr %49, align 4, !tbaa !45
  %51 = add nsw i32 %48, %50
  store i32 %51, ptr %19, align 4, !tbaa !8
  %52 = call noundef nonnull align 4 dereferenceable(4) ptr @_ZSt3minIiERKT_S2_S2_(ptr noundef nonnull align 4 dereferenceable(4) %18, ptr noundef nonnull align 4 dereferenceable(4) %19)
  %53 = load i32, ptr %52, align 4, !tbaa !8
  call void @llvm.lifetime.end.p0(i64 4, ptr %19) #3
  call void @llvm.lifetime.end.p0(i64 4, ptr %18) #3
  store i32 %53, ptr %17, align 4, !tbaa !8
  %54 = load i32, ptr %12, align 4, !tbaa !8
  %55 = load i32, ptr %14, align 4, !tbaa !8
  %56 = icmp slt i32 %54, %55
  br i1 %56, label %57, label %71

57:                                               ; preds = %5
  %58 = load i32, ptr %13, align 4, !tbaa !8
  %59 = load i32, ptr %17, align 4, !tbaa !8
  %60 = icmp slt i32 %58, %59
  br i1 %60, label %61, label %71

61:                                               ; preds = %57
  call void @llvm.lifetime.start.p0(i64 16, ptr %20) #3
  %62 = load i32, ptr %12, align 4, !tbaa !8
  %63 = load i32, ptr %13, align 4, !tbaa !8
  %64 = load i32, ptr %14, align 4, !tbaa !8
  %65 = load i32, ptr %12, align 4, !tbaa !8
  %66 = sub nsw i32 %64, %65
  %67 = load i32, ptr %17, align 4, !tbaa !8
  %68 = load i32, ptr %13, align 4, !tbaa !8
  %69 = sub nsw i32 %67, %68
  call void @_ZN2cv5Rect_IiEC2Eiiii(ptr noundef nonnull align 4 dereferenceable(16) %20, i32 noundef %62, i32 noundef %63, i32 noundef %66, i32 noundef %69)
  %70 = load ptr, ptr %11, align 8, !tbaa !38
  call void @llvm.memcpy.p0.p0.i64(ptr align 4 %70, ptr align 4 %20, i64 16, i1 false), !tbaa.struct !46
  call void @llvm.lifetime.end.p0(i64 16, ptr %20) #3
  store i1 true, ptr %6, align 1
  store i32 1, ptr %21, align 4
  br label %72

71:                                               ; preds = %57, %5
  store i1 false, ptr %6, align 1
  store i32 1, ptr %21, align 4
  br label %72

72:                                               ; preds = %71, %61
  call void @llvm.lifetime.end.p0(i64 4, ptr %17) #3
  call void @llvm.lifetime.end.p0(i64 4, ptr %14) #3
  call void @llvm.lifetime.end.p0(i64 4, ptr %13) #3
  call void @llvm.lifetime.end.p0(i64 4, ptr %12) #3
  %73 = load i1, ptr %6, align 1
  ret i1 %73
}