; Function Attrs: mustprogress nofree norecurse nosync nounwind willreturn memory(argmem: write) uwtable
define noundef zeroext i1 @_ZN2cv6detail10overlapRoiENS_6Point_IiEES2_NS_5Size_IiEES4_RNS_5Rect_IiEE(i64 %0, i64 %1, i64 %2, i64 %3, ptr noundef nonnull writeonly align 4 captures(none) dereferenceable(16) %4) local_unnamed_addr #7 {
  %.sroa.040.0.extract.trunc = trunc i64 %0 to i32
  %.sroa.442.0.extract.shift = lshr i64 %0, 32
  %.sroa.442.0.extract.trunc = trunc nuw i64 %.sroa.442.0.extract.shift to i32
  %.sroa.028.0.extract.trunc = trunc i64 %1 to i32
  %.sroa.430.0.extract.shift = lshr i64 %1, 32
  %.sroa.430.0.extract.trunc = trunc nuw i64 %.sroa.430.0.extract.shift to i32
  %.sroa.010.0.extract.trunc = trunc i64 %2 to i32
  %.sroa.211.0.extract.shift = lshr i64 %2, 32
  %.sroa.211.0.extract.trunc = trunc nuw i64 %.sroa.211.0.extract.shift to i32
  %.sroa.0.0.extract.trunc = trunc i64 %3 to i32
  %.sroa.2.0.extract.shift = lshr i64 %3, 32
  %.sroa.2.0.extract.trunc = trunc nuw i64 %.sroa.2.0.extract.shift to i32
  %.sroa.speculated35 = tail call i32 @llvm.smax.i32(i32 %.sroa.040.0.extract.trunc, i32 %.sroa.028.0.extract.trunc)
  %.sroa.speculated32 = tail call i32 @llvm.smax.i32(i32 %.sroa.442.0.extract.trunc, i32 %.sroa.430.0.extract.trunc)
  %6 = add nsw i32 %.sroa.010.0.extract.trunc, %.sroa.040.0.extract.trunc
  %7 = add nsw i32 %.sroa.0.0.extract.trunc, %.sroa.028.0.extract.trunc
  %.sroa.speculated23 = tail call i32 @llvm.smin.i32(i32 %7, i32 %6)
  %8 = add nsw i32 %.sroa.211.0.extract.trunc, %.sroa.442.0.extract.trunc
  %9 = add nsw i32 %.sroa.2.0.extract.trunc, %.sroa.430.0.extract.trunc
  %.sroa.speculated = tail call i32 @llvm.smin.i32(i32 %9, i32 %8)
  %10 = icmp slt i32 %.sroa.speculated35, %.sroa.speculated23
  %11 = icmp slt i32 %.sroa.speculated32, %.sroa.speculated
  %or.cond = select i1 %10, i1 %11, i1 false
  br i1 %or.cond, label %12, label %15

12:                                               ; preds = %5
  %13 = sub nsw i32 %.sroa.speculated23, %.sroa.speculated35
  %14 = sub nsw i32 %.sroa.speculated, %.sroa.speculated32
  store i32 %.sroa.speculated35, ptr %4, align 4, !tbaa !3
  %.sroa.4.0..sroa_idx = getelementptr inbounds nuw i8, ptr %4, i64 4
  store i32 %.sroa.speculated32, ptr %.sroa.4.0..sroa_idx, align 4, !tbaa !3
  %.sroa.5.0..sroa_idx = getelementptr inbounds nuw i8, ptr %4, i64 8
  store i32 %13, ptr %.sroa.5.0..sroa_idx, align 4, !tbaa !3
  %.sroa.6.0..sroa_idx = getelementptr inbounds nuw i8, ptr %4, i64 12
  store i32 %14, ptr %.sroa.6.0..sroa_idx, align 4, !tbaa !3
  br label %15

15:                                               ; preds = %5, %12
  ret i1 %or.cond
}